target datalayout = "e-m:e-p270:32:32-p271:32:32-p272:64:64-i64:64-i128:128-f80:128-n8:16:32:64-S128"
target triple = "x86_64-pc-linux-gnu"

%"class.duckdb::ColumnReader" = type { ptr, ptr, ptr, i64, i8, ptr, ptr, i64, i64, i64, %"class.duckdb::shared_ptr", %"class.duckdb::ResizeableBuffer", i32, %"class.duckdb::unique_ptr", %"class.duckdb::unique_ptr", %"class.duckdb::DictionaryDecoder", %"class.duckdb::DeltaBinaryPackedDecoder", %"class.duckdb::RLEDecoder", %"class.duckdb::DeltaLengthByteArrayDecoder", %"class.duckdb::DeltaByteArrayDecoder", %"class.duckdb::ByteStreamSplitDecoder", [2 x %"class.duckdb::ResizeableBuffer"] }
%"class.duckdb::shared_ptr" = type { %"class.std::shared_ptr" }
%"class.std::shared_ptr" = type { %"class.std::__shared_ptr" }
%"class.std::__shared_ptr" = type { ptr, %"class.std::__shared_count" }
%"class.std::__shared_count" = type { ptr }
%"class.duckdb::ResizeableBuffer" = type { %"class.duckdb::ByteBuffer", %"class.duckdb::AllocatedData", i64 }
%"class.duckdb::ByteBuffer" = type { ptr, i64 }
%"class.duckdb::AllocatedData" = type { %"class.duckdb::optional_ptr", ptr, i64 }
%"class.duckdb::optional_ptr" = type { ptr }
%"class.duckdb::unique_ptr" = type { %"class.std::unique_ptr" }
%"class.std::unique_ptr" = type { %"struct.std::__uniq_ptr_data" }
%"struct.std::__uniq_ptr_data" = type { %"class.std::__uniq_ptr_impl" }
%"class.std::__uniq_ptr_impl" = type { %"class.std::tuple" }
%"class.std::tuple" = type { %"struct.std::_Tuple_impl" }
%"struct.std::_Tuple_impl" = type { %"struct.std::_Head_base.1" }
%"struct.std::_Head_base.1" = type { ptr }
%"class.duckdb::DictionaryDecoder" = type { ptr, ptr, %"class.duckdb::unique_ptr", %"struct.duckdb::SelectionVector", %"struct.duckdb::SelectionVector", i64, %"class.duckdb::unique_ptr.6", %"class.duckdb::unique_ptr.15", i64, i8, %"class.std::__cxx11::basic_string" }
%"struct.duckdb::SelectionVector" = type { ptr, %"class.duckdb::shared_ptr.2" }
%"class.duckdb::shared_ptr.2" = type { %"class.std::shared_ptr.3" }
%"class.std::shared_ptr.3" = type { %"class.std::__shared_ptr.4" }
%"class.std::__shared_ptr.4" = type { ptr, %"class.std::__shared_count" }
%"class.duckdb::unique_ptr.6" = type { %"class.std::unique_ptr.7" }
%"class.std::unique_ptr.7" = type { %"struct.std::__uniq_ptr_data.8" }
%"struct.std::__uniq_ptr_data.8" = type { %"class.std::__uniq_ptr_impl.9" }
%"class.std::__uniq_ptr_impl.9" = type { %"class.std::tuple.10" }
%"class.std::tuple.10" = type { %"struct.std::_Tuple_impl.11" }
%"struct.std::_Tuple_impl.11" = type { %"struct.std::_Head_base.14" }
%"struct.std::_Head_base.14" = type { ptr }
%"class.duckdb::unique_ptr.15" = type { %"class.std::unique_ptr.16" }
%"class.std::unique_ptr.16" = type { %"struct.std::__uniq_ptr_data.17" }
%"struct.std::__uniq_ptr_data.17" = type { %"class.std::__uniq_ptr_impl.18" }
%"class.std::__uniq_ptr_impl.18" = type { %"class.std::tuple.19" }
%"class.std::tuple.19" = type { %"struct.std::_Tuple_impl.20" }
%"struct.std::_Tuple_impl.20" = type { %"struct.std::_Head_base.23" }
%"struct.std::_Head_base.23" = type { ptr }
%"class.std::__cxx11::basic_string" = type { %"struct.std::__cxx11::basic_string<char>::_Alloc_hider", i64, %union.anon }
%"struct.std::__cxx11::basic_string<char>::_Alloc_hider" = type { ptr }
%union.anon = type { i64, [8 x i8] }
%"class.duckdb::DeltaBinaryPackedDecoder" = type { ptr, ptr, %"class.duckdb::unique_ptr.24" }
%"class.duckdb::unique_ptr.24" = type { %"class.std::unique_ptr.25" }
%"class.std::unique_ptr.25" = type { %"struct.std::__uniq_ptr_data.26" }
%"struct.std::__uniq_ptr_data.26" = type { %"class.std::__uniq_ptr_impl.27" }
%"class.std::__uniq_ptr_impl.27" = type { %"class.std::tuple.28" }
%"class.std::tuple.28" = type { %"struct.std::_Tuple_impl.29" }
%"struct.std::_Tuple_impl.29" = type { %"struct.std::_Head_base.32" }
%"struct.std::_Head_base.32" = type { ptr }
%"class.duckdb::RLEDecoder" = type { ptr, ptr, %"class.duckdb::unique_ptr" }
%"class.duckdb::DeltaLengthByteArrayDecoder" = type { ptr, ptr, i64, i64 }
%"class.duckdb::DeltaByteArrayDecoder" = type { ptr, %"class.duckdb::unique_ptr.6", i64, i64 }
%"class.duckdb::ByteStreamSplitDecoder" = type { ptr, ptr, %"class.duckdb::unique_ptr.33" }
%"class.duckdb::unique_ptr.33" = type { %"class.std::unique_ptr.34" }
%"class.std::unique_ptr.34" = type { %"struct.std::__uniq_ptr_data.35" }
%"struct.std::__uniq_ptr_data.35" = type { %"class.std::__uniq_ptr_impl.36" }
%"class.std::__uniq_ptr_impl.36" = type { %"class.std::tuple.37" }
%"class.std::tuple.37" = type { %"struct.std::_Tuple_impl.38" }
%"struct.std::_Tuple_impl.38" = type { %"struct.std::_Head_base.41" }
%"struct.std::_Head_base.41" = type { ptr }
%"class.duckdb::vector.142" = type { %"class.std::vector.143" }
%"class.std::vector.143" = type { %"struct.std::_Vector_base.144" }
%"struct.std::_Vector_base.144" = type { %"struct.std::_Vector_base<std::__cxx11::basic_string<char>, std::allocator<std::__cxx11::basic_string<char>>>::_Vector_impl" }
%"struct.std::_Vector_base<std::__cxx11::basic_string<char>, std::allocator<std::__cxx11::basic_string<char>>>::_Vector_impl" = type { %"struct.std::_Vector_base<std::__cxx11::basic_string<char>, std::allocator<std::__cxx11::basic_string<char>>>::_Vector_impl_data" }
%"struct.std::_Vector_base<std::__cxx11::basic_string<char>, std::allocator<std::__cxx11::basic_string<char>>>::_Vector_impl_data" = type { ptr, ptr, ptr }
%"class.duckdb_parquet::ColumnChunk" = type <{ %"class.duckdb_apache::thrift::TBase", %"class.std::__cxx11::basic_string", i64, %"class.duckdb_parquet::ColumnMetaData", i64, i32, [4 x i8], i64, i32, [4 x i8], %"class.duckdb_parquet::ColumnCryptoMetaData", %"class.std::__cxx11::basic_string", %"struct.duckdb_parquet::_ColumnChunk__isset", [7 x i8] }>
%"class.duckdb_apache::thrift::TBase" = type { ptr }
%"class.duckdb_parquet::ColumnMetaData" = type <{ %"class.duckdb_apache::thrift::TBase", i32, [4 x i8], %"class.duckdb::vector.166", %"class.duckdb::vector.142", i32, [4 x i8], i64, i64, i64, %"class.duckdb::vector.172", i64, i64, i64, %"class.duckdb_parquet::Statistics", %"class.duckdb::vector.178", i64, i32, [4 x i8], %"class.duckdb_parquet::SizeStatistics", %"struct.duckdb_parquet::_ColumnMetaData__isset", [7 x i8] }>
%"class.duckdb::vector.166" = type { %"class.std::vector.167" }
%"class.std::vector.167" = type { %"struct.std::_Vector_base.168" }
%"struct.std::_Vector_base.168" = type { %"struct.std::_Vector_base<duckdb_parquet::Encoding::type, std::allocator<duckdb_parquet::Encoding::type>>::_Vector_impl" }
%"struct.std::_Vector_base<duckdb_parquet::Encoding::type, std::allocator<duckdb_parquet::Encoding::type>>::_Vector_impl" = type { %"struct.std::_Vector_base<duckdb_parquet::Encoding::type, std::allocator<duckdb_parquet::Encoding::type>>::_Vector_impl_data" }
%"struct.std::_Vector_base<duckdb_parquet::Encoding::type, std::allocator<duckdb_parquet::Encoding::type>>::_Vector_impl_data" = type { ptr, ptr, ptr }
%"class.duckdb::vector.172" = type { %"class.std::vector.173" }
%"class.std::vector.173" = type { %"struct.std::_Vector_base.174" }
%"struct.std::_Vector_base.174" = type { %"struct.std::_Vector_base<duckdb_parquet::KeyValue, std::allocator<duckdb_parquet::KeyValue>>::_Vector_impl" }
%"struct.std::_Vector_base<duckdb_parquet::KeyValue, std::allocator<duckdb_parquet::KeyValue>>::_Vector_impl" = type { %"struct.std::_Vector_base<duckdb_parquet::KeyValue, std::allocator<duckdb_parquet::KeyValue>>::_Vector_impl_data" }
%"struct.std::_Vector_base<duckdb_parquet::KeyValue, std::allocator<duckdb_parquet::KeyValue>>::_Vector_impl_data" = type { ptr, ptr, ptr }
%"class.duckdb_parquet::Statistics" = type <{ %"class.duckdb_apache::thrift::TBase", %"class.std::__cxx11::basic_string", %"class.std::__cxx11::basic_string", i64, i64, %"class.std::__cxx11::basic_string", %"class.std::__cxx11::basic_string", i8, i8, %"struct.duckdb_parquet::_Statistics__isset", [5 x i8] }>
%"struct.duckdb_parquet::_Statistics__isset" = type { i8 }
%"class.duckdb::vector.178" = type { %"class.std::vector.179" }
%"class.std::vector.179" = type { %"struct.std::_Vector_base.180" }
%"struct.std::_Vector_base.180" = type { %"struct.std::_Vector_base<duckdb_parquet::PageEncodingStats, std::allocator<duckdb_parquet::PageEncodingStats>>::_Vector_impl" }
%"struct.std::_Vector_base<duckdb_parquet::PageEncodingStats, std::allocator<duckdb_parquet::PageEncodingStats>>::_Vector_impl" = type { %"struct.std::_Vector_base<duckdb_parquet::PageEncodingStats, std::allocator<duckdb_parquet::PageEncodingStats>>::_Vector_impl_data" }
%"struct.std::_Vector_base<duckdb_parquet::PageEncodingStats, std::allocator<duckdb_parquet::PageEncodingStats>>::_Vector_impl_data" = type { ptr, ptr, ptr }
%"class.duckdb_parquet::SizeStatistics" = type <{ %"class.duckdb_apache::thrift::TBase", i64, %"class.duckdb::vector.184", %"class.duckdb::vector.184", %"struct.duckdb_parquet::_SizeStatistics__isset", [7 x i8] }>
%"class.duckdb::vector.184" = type { %"class.std::vector.185" }
%"class.std::vector.185" = type { %"struct.std::_Vector_base.186" }
%"struct.std::_Vector_base.186" = type { %"struct.std::_Vector_base<long, std::allocator<long>>::_Vector_impl" }
%"struct.std::_Vector_base<long, std::allocator<long>>::_Vector_impl" = type { %"struct.std::_Vector_base<long, std::allocator<long>>::_Vector_impl_data" }
%"struct.std::_Vector_base<long, std::allocator<long>>::_Vector_impl_data" = type { ptr, ptr, ptr }
%"struct.duckdb_parquet::_SizeStatistics__isset" = type { i8 }
%"struct.duckdb_parquet::_ColumnMetaData__isset" = type { i8 }
%"class.duckdb_parquet::ColumnCryptoMetaData" = type <{ %"class.duckdb_apache::thrift::TBase", %"class.duckdb_parquet::EncryptionWithFooterKey", %"class.duckdb_parquet::EncryptionWithColumnKey", %"struct.duckdb_parquet::_ColumnCryptoMetaData__isset", [7 x i8] }>
%"class.duckdb_parquet::EncryptionWithFooterKey" = type { %"class.duckdb_apache::thrift::TBase" }
%"class.duckdb_parquet::EncryptionWithColumnKey" = type <{ %"class.duckdb_apache::thrift::TBase", %"class.duckdb::vector.142", %"class.std::__cxx11::basic_string", %"struct.duckdb_parquet::_EncryptionWithColumnKey__isset", [7 x i8] }>
%"struct.duckdb_parquet::_EncryptionWithColumnKey__isset" = type { i8 }
%"struct.duckdb_parquet::_ColumnCryptoMetaData__isset" = type { i8 }
%"struct.duckdb_parquet::_ColumnChunk__isset" = type { i8 }
%"class.duckdb::ThriftFileTransport" = type <{ %"class.duckdb_apache::thrift::transport::TVirtualTransport", ptr, i64, ptr, %"struct.duckdb::ReadAheadBuffer", i8, [7 x i8] }>
%"class.duckdb_apache::thrift::transport::TVirtualTransport" = type { %"class.duckdb_apache::thrift::transport::TTransportDefaults" }
%"class.duckdb_apache::thrift::transport::TTransportDefaults" = type { %"class.duckdb_apache::thrift::transport::TTransport" }
%"class.duckdb_apache::thrift::transport::TTransport" = type { ptr }
%"struct.duckdb::ReadAheadBuffer" = type { %"class.std::__cxx11::list", %"class.std::set", ptr, ptr, i64 }
%"class.std::__cxx11::list" = type { %"class.std::__cxx11::_List_base" }
%"class.std::__cxx11::_List_base" = type { %"struct.std::__cxx11::_List_base<duckdb::ReadHead, std::allocator<duckdb::ReadHead>>::_List_impl" }
%"struct.std::__cxx11::_List_base<duckdb::ReadHead, std::allocator<duckdb::ReadHead>>::_List_impl" = type { %"struct.std::__detail::_List_node_header" }
%"struct.std::__detail::_List_node_header" = type { %"struct.std::__detail::_List_node_base", i64 }
%"struct.std::__detail::_List_node_base" = type { ptr, ptr }
%"class.std::set" = type { %"class.std::_Rb_tree" }
%"class.std::_Rb_tree" = type { %"struct.std::_Rb_tree<duckdb::ReadHead *, duckdb::ReadHead *, std::_Identity<duckdb::ReadHead *>, duckdb::ReadHeadComparator>::_Rb_tree_impl" }
%"struct.std::_Rb_tree<duckdb::ReadHead *, duckdb::ReadHead *, std::_Identity<duckdb::ReadHead *>, duckdb::ReadHeadComparator>::_Rb_tree_impl" = type { [8 x i8], %"struct.std::_Rb_tree_header" }
%"struct.std::_Rb_tree_header" = type { %"struct.std::_Rb_tree_node_base", i64 }
%"struct.std::_Rb_tree_node_base" = type { i32, ptr, ptr, ptr }

; Function Attrs: mustprogress uwtable
define linkonce_odr void @_ZN6duckdb19ThriftFileTransport16RegisterPrefetchEmmb(ptr noundef nonnull align 8 dereferenceable(129) %0, i64 noundef %1, i64 noundef %2, i1 noundef zeroext %3) #4 comdat align 2 {
  %5 = alloca ptr, align 8
  %6 = alloca i64, align 8
  %7 = alloca i64, align 8
  %8 = alloca i8, align 1
  store ptr %0, ptr %5, align 8, !tbaa !203
  store i64 %1, ptr %6, align 8, !tbaa !245
  store i64 %2, ptr %7, align 8, !tbaa !245
  %9 = zext i1 %3 to i8
  store i8 %9, ptr %8, align 1, !tbaa !205
  %10 = load ptr, ptr %5, align 8
  %11 = getelementptr inbounds nuw %"class.duckdb::ThriftFileTransport", ptr %10, i32 0, i32 4
  %12 = load i64, ptr %6, align 8, !tbaa !245
  %13 = load i64, ptr %7, align 8, !tbaa !245
  %14 = load i8, ptr %8, align 1, !tbaa !205, !range !246, !noundef !247
  %15 = trunc i8 %14 to i1
  call void @_ZN6duckdb15ReadAheadBuffer11AddReadHeadEmmb(ptr noundef nonnull align 8 dereferenceable(96) %11, i64 noundef %12, i64 noundef %13, i1 noundef zeroext %15)
  ret void
}

; Function Attrs: mustprogress uwtable
define void @_ZN6duckdb12ColumnReader16RegisterPrefetchERNS_19ThriftFileTransportEb(ptr noundef nonnull align 8 dereferenceable(544) %0, ptr noundef nonnull align 8 dereferenceable(129) %1, i1 noundef zeroext %2) unnamed_addr #4 align 2 {
  %4 = alloca ptr, align 8
  %5 = alloca ptr, align 8
  %6 = alloca i8, align 1
  %7 = alloca i64, align 8
  store ptr %0, ptr %4, align 8, !tbaa !3
  store ptr %1, ptr %5, align 8, !tbaa !203
  %8 = zext i1 %2 to i8
  store i8 %8, ptr %6, align 1, !tbaa !205
  %9 = load ptr, ptr %4, align 8
  %10 = getelementptr inbounds nuw %"class.duckdb::ColumnReader", ptr %9, i32 0, i32 5
  %11 = load ptr, ptr %10, align 8, !tbaa !88
  %12 = icmp ne ptr %11, null
  br i1 %12, label %13, label %27

13:                                               ; preds = %3
  call void @llvm.lifetime.start.p0(i64 8, ptr %7) #3
  %14 = getelementptr inbounds nuw %"class.duckdb::ColumnReader", ptr %9, i32 0, i32 5
  %15 = load ptr, ptr %14, align 8, !tbaa !88
  %16 = getelementptr inbounds nuw %"class.duckdb_parquet::ColumnChunk", ptr %15, i32 0, i32 3
  %17 = getelementptr inbounds nuw %"class.duckdb_parquet::ColumnMetaData", ptr %16, i32 0, i32 9
  %18 = load i64, ptr %17, align 8, !tbaa !206
  store i64 %18, ptr %7, align 8, !tbaa !245
  %19 = load ptr, ptr %5, align 8, !tbaa !203
  %20 = load ptr, ptr %9, align 8, !tbaa !12
  %21 = getelementptr inbounds ptr, ptr %20, i64 7
  %22 = load ptr, ptr %21, align 8
  %23 = call noundef i64 %22(ptr noundef nonnull align 8 dereferenceable(544) %9)
  %24 = load i64, ptr %7, align 8, !tbaa !245
  %25 = load i8, ptr %6, align 1, !tbaa !205, !range !246, !noundef !247
  %26 = trunc i8 %25 to i1
  call void @_ZN6duckdb19ThriftFileTransport16RegisterPrefetchEmmb(ptr noundef nonnull align 8 dereferenceable(129) %19, i64 noundef %23, i64 noundef %24, i1 noundef zeroext %26)
  call void @llvm.lifetime.end.p0(i64 8, ptr %7) #3
  br label %27

27:                                               ; preds = %13, %3
  ret void
}