; Function Attrs: mustprogress uwtable
define void @_ZN6duckdb12ColumnReader16RegisterPrefetchERNS_19ThriftFileTransportEb(ptr noundef nonnull align 8 dereferenceable(544) %0, ptr noundef nonnull align 8 dereferenceable(129) %1, i1 noundef zeroext %2) unnamed_addr #3 align 2 {
  %4 = getelementptr inbounds nuw i8, ptr %0, i64 40
  %5 = load ptr, ptr %4, align 8, !tbaa !87
  %.not = icmp eq ptr %5, null
  br i1 %.not, label %14, label %6

6:                                                ; preds = %3
  %7 = getelementptr inbounds nuw i8, ptr %5, i64 136
  %8 = load i64, ptr %7, align 8, !tbaa !197
  %9 = load ptr, ptr %0, align 8, !tbaa !3
  %10 = getelementptr inbounds nuw i8, ptr %9, i64 56
  %11 = load ptr, ptr %10, align 8
  %12 = tail call noundef i64 %11(ptr noundef nonnull align 8 dereferenceable(544) %0)
  %13 = getelementptr inbounds nuw i8, ptr %1, i64 32
  tail call void @_ZN6duckdb15ReadAheadBuffer11AddReadHeadEmmb(ptr noundef nonnull align 8 dereferenceable(96) %13, i64 noundef %12, i64 noundef %8, i1 noundef zeroext %2)
  br label %14

14:                                               ; preds = %6, %3
  ret void
}